; ModuleID = '20/1076.c'
source_filename = "20/1076.c"
target datalayout = "e-m:e-p270:32:32-p271:32:32-p272:64:64-i64:64-f80:128-n8:16:32:64-S128"
target triple = "x86_64-pc-linux-gnu"

@.str = private unnamed_addr constant [5 x i8] c"%s%s\00", align 1
@.str.1 = private unnamed_addr constant [3 x i8] c"%c\00", align 1
@.str.2 = private unnamed_addr constant [3 x i8] c"%s\00", align 1
@.str.3 = private unnamed_addr constant [2 x i8] c"\0A\00", align 1

; Function Attrs: noinline nounwind uwtable
define dso_local i32 @main() #0 {
  %1 = alloca i32, align 4
  %2 = alloca i32, align 4
  %3 = alloca i32, align 4
  %4 = alloca i32, align 4
  %5 = alloca i32, align 4
  %6 = alloca [4 x i8], align 1
  %7 = alloca [11 x i8], align 1
  store i32 0, i32* %1, align 4
  store i32 0, i32* %2, align 4
  br label %8

8:                                                ; preds = %15, %0
  %9 = load i32, i32* %2, align 4
  %10 = icmp slt i32 %9, 4
  br i1 %10, label %11, label %18

11:                                               ; preds = %8
  %12 = load i32, i32* %2, align 4
  %13 = sext i32 %12 to i64
  %14 = getelementptr inbounds [4 x i8], [4 x i8]* %6, i64 0, i64 %13
  store i8 -1, i8* %14, align 1
  br label %15

15:                                               ; preds = %11
  %16 = load i32, i32* %2, align 4
  %17 = add nsw i32 %16, 1
  store i32 %17, i32* %2, align 4
  br label %8

18:                                               ; preds = %8
  store i32 0, i32* %2, align 4
  br label %19

19:                                               ; preds = %26, %18
  %20 = load i32, i32* %2, align 4
  %21 = icmp slt i32 %20, 11
  br i1 %21, label %22, label %29

22:                                               ; preds = %19
  %23 = load i32, i32* %2, align 4
  %24 = sext i32 %23 to i64
  %25 = getelementptr inbounds [11 x i8], [11 x i8]* %7, i64 0, i64 %24
  store i8 -1, i8* %25, align 1
  br label %26

26:                                               ; preds = %22
  %27 = load i32, i32* %2, align 4
  %28 = add nsw i32 %27, 1
  store i32 %28, i32* %2, align 4
  br label %19

29:                                               ; preds = %19
  br label %30

30:                                               ; preds = %84, %29
  %31 = getelementptr inbounds [11 x i8], [11 x i8]* %7, i64 0, i64 0
  %32 = getelementptr inbounds [4 x i8], [4 x i8]* %6, i64 0, i64 0
  %33 = call i32 (i8*, ...) @__isoc99_scanf(i8* getelementptr inbounds ([5 x i8], [5 x i8]* @.str, i64 0, i64 0), i8* %31, i8* %32)
  %34 = icmp ne i32 %33, -1
  br i1 %34, label %35, label %86

35:                                               ; preds = %30
  %36 = getelementptr inbounds [11 x i8], [11 x i8]* %7, i64 0, i64 0
  %37 = call i64 @strlen(i8* %36) #3
  %38 = trunc i64 %37 to i32
  store i32 %38, i32* %3, align 4
  store i32 -1, i32* %4, align 4
  store i32 -1, i32* %5, align 4
  store i32 0, i32* %2, align 4
  br label %39

39:                                               ; preds = %59, %35
  %40 = load i32, i32* %2, align 4
  %41 = load i32, i32* %3, align 4
  %42 = icmp slt i32 %40, %41
  br i1 %42, label %43, label %62

43:                                               ; preds = %39
  %44 = load i32, i32* %2, align 4
  %45 = sext i32 %44 to i64
  %46 = getelementptr inbounds [11 x i8], [11 x i8]* %7, i64 0, i64 %45
  %47 = load i8, i8* %46, align 1
  %48 = sext i8 %47 to i32
  %49 = load i32, i32* %4, align 4
  %50 = icmp sgt i32 %48, %49
  br i1 %50, label %51, label %58

51:                                               ; preds = %43
  %52 = load i32, i32* %2, align 4
  %53 = sext i32 %52 to i64
  %54 = getelementptr inbounds [11 x i8], [11 x i8]* %7, i64 0, i64 %53
  %55 = load i8, i8* %54, align 1
  %56 = sext i8 %55 to i32
  store i32 %56, i32* %4, align 4
  %57 = load i32, i32* %2, align 4
  store i32 %57, i32* %5, align 4
  br label %58

58:                                               ; preds = %51, %43
  br label %59

59:                                               ; preds = %58
  %60 = load i32, i32* %2, align 4
  %61 = add nsw i32 %60, 1
  store i32 %61, i32* %2, align 4
  br label %39

62:                                               ; preds = %39
  store i32 0, i32* %2, align 4
  br label %63

63:                                               ; preds = %81, %62
  %64 = load i32, i32* %2, align 4
  %65 = load i32, i32* %3, align 4
  %66 = icmp slt i32 %64, %65
  br i1 %66, label %67, label %84

67:                                               ; preds = %63
  %68 = load i32, i32* %2, align 4
  %69 = sext i32 %68 to i64
  %70 = getelementptr inbounds [11 x i8], [11 x i8]* %7, i64 0, i64 %69
  %71 = load i8, i8* %70, align 1
  %72 = sext i8 %71 to i32
  %73 = call i32 (i8*, ...) @printf(i8* getelementptr inbounds ([3 x i8], [3 x i8]* @.str.1, i64 0, i64 0), i32 %72)
  %74 = load i32, i32* %2, align 4
  %75 = load i32, i32* %5, align 4
  %76 = icmp eq i32 %74, %75
  br i1 %76, label %77, label %80

77:                                               ; preds = %67
  %78 = getelementptr inbounds [4 x i8], [4 x i8]* %6, i64 0, i64 0
  %79 = call i32 (i8*, ...) @printf(i8* getelementptr inbounds ([3 x i8], [3 x i8]* @.str.2, i64 0, i64 0), i8* %78)
  br label %80

80:                                               ; preds = %77, %67
  br label %81

81:                                               ; preds = %80
  %82 = load i32, i32* %2, align 4
  %83 = add nsw i32 %82, 1
  store i32 %83, i32* %2, align 4
  br label %63

84:                                               ; preds = %63
  %85 = call i32 (i8*, ...) @printf(i8* getelementptr inbounds ([2 x i8], [2 x i8]* @.str.3, i64 0, i64 0))
  br label %30

86:                                               ; preds = %30
  ret i32 0
}

declare dso_local i32 @__isoc99_scanf(i8*, ...) #1

; Function Attrs: nounwind readonly
declare dso_local i64 @strlen(i8*) #2

declare dso_local i32 @printf(i8*, ...) #1


!llvm.module.flags = !{!0}
!llvm.ident = !{!1}

!0 = !{i32 1, !"wchar_size", i32 4}
!1 = !{!"clang version 10.0.0-4ubuntu1 "}
